; Function Attrs: mustprogress uwtable
define noundef range(i32 0, 3) i32 @_ZN6icu_7710Quantifier7matchesERKNS_11ReplaceableERiia(ptr noundef nonnull readonly align 8 captures(none) dereferenceable(32) %0, ptr noundef nonnull align 8 dereferenceable(8) %1, ptr noundef nonnull align 4 dereferenceable(4) %2, i32 noundef %3, i8 noundef signext %4) unnamed_addr #1 align 2 {
  %6 = load i32, ptr %2, align 4, !tbaa !12
  %7 = getelementptr inbounds nuw i8, ptr %0, i64 28
  %8 = getelementptr inbounds nuw i8, ptr %0, i64 16
  br label %9

9:                                                ; preds = %24, %5
  %10 = phi i32 [ %6, %5 ], [ %26, %24 ]
  %.023 = phi i32 [ 0, %5 ], [ %25, %24 ]
  %11 = load i32, ptr %7, align 4, !tbaa !24
  %12 = icmp ult i32 %.023, %11
  br i1 %12, label %13, label %.thread

13:                                               ; preds = %9
  %14 = load ptr, ptr %8, align 8, !tbaa !17
  %15 = load ptr, ptr %14, align 8, !tbaa !15
  %16 = getelementptr inbounds nuw i8, ptr %15, i64 32
  %17 = load ptr, ptr %16, align 8
  %18 = tail call noundef ptr %17(ptr noundef nonnull align 8 dereferenceable(8) %14)
  %19 = load ptr, ptr %18, align 8, !tbaa !15
  %20 = getelementptr inbounds nuw i8, ptr %19, i64 16
  %21 = load ptr, ptr %20, align 8
  %22 = tail call noundef i32 %21(ptr noundef nonnull align 8 dereferenceable(8) %18, ptr noundef nonnull align 8 dereferenceable(8) %1, ptr noundef nonnull align 4 dereferenceable(4) %2, i32 noundef %3, i8 noundef signext %4)
  %23 = icmp eq i32 %22, 2
  br i1 %23, label %24, label %28

24:                                               ; preds = %13
  %25 = add nuw i32 %.023, 1
  %26 = load i32, ptr %2, align 4, !tbaa !12
  %27 = icmp eq i32 %10, %26
  br i1 %27, label %.thread, label %9

28:                                               ; preds = %13
  %29 = icmp ne i8 %4, 0
  %30 = icmp eq i32 %22, 1
  %or.cond = and i1 %29, %30
  br i1 %or.cond, label %.thread34, label %..thread_crit_edge

..thread_crit_edge:                               ; preds = %28
  %.pre = load i32, ptr %2, align 4
  br label %.thread

.thread:                                          ; preds = %24, %9, %..thread_crit_edge
  %31 = phi i32 [ %.pre, %..thread_crit_edge ], [ %10, %9 ], [ %10, %24 ]
  %.124 = phi i32 [ %.023, %..thread_crit_edge ], [ %25, %24 ], [ %.023, %9 ]
  %.not = icmp ne i8 %4, 0
  %32 = icmp eq i32 %31, %3
  %or.cond30 = select i1 %.not, i1 %32, i1 false
  br i1 %or.cond30, label %.thread34, label %33

33:                                               ; preds = %.thread
  %34 = getelementptr inbounds nuw i8, ptr %0, i64 24
  %35 = load i32, ptr %34, align 8, !tbaa !23
  %.not27 = icmp ult i32 %.124, %35
  br i1 %.not27, label %36, label %.thread34

36:                                               ; preds = %33
  store i32 %6, ptr %2, align 4, !tbaa !12
  br label %.thread34

.thread34:                                        ; preds = %28, %33, %.thread, %36
  %.2 = phi i32 [ 0, %36 ], [ 1, %.thread ], [ 2, %33 ], [ 1, %28 ]
  ret i32 %.2
}